target datalayout = "e-m:e-p270:32:32-p271:32:32-p272:64:64-i64:64-i128:128-f80:128-n8:16:32:64-S128"
target triple = "x86_64-pc-linux-gnu"

@.str = private unnamed_addr constant [2 x i8] c" \00", align 1

; Function Attrs: mustprogress nounwind uwtable
define noundef i32 @_Z9pr_indentP8_IO_FILEi(ptr noundef %0, i32 noundef %1) #0 {
  %3 = alloca ptr, align 8
  %4 = alloca i32, align 4
  %5 = alloca i32, align 4
  store ptr %0, ptr %3, align 8
  store i32 %1, ptr %4, align 4
  store i32 0, ptr %5, align 4
  br label %6

6:                                                ; preds = %13, %2
  %7 = load i32, ptr %5, align 4
  %8 = load i32, ptr %4, align 4
  %9 = icmp slt i32 %7, %8
  br i1 %9, label %10, label %16

10:                                               ; preds = %6
  %11 = load ptr, ptr %3, align 8
  %12 = call i32 (ptr, ptr, ...) @fprintf(ptr noundef %11, ptr noundef @.str) #4
  br label %13

13:                                               ; preds = %10
  %14 = load i32, ptr %5, align 4
  %15 = add nsw i32 %14, 1
  store i32 %15, ptr %5, align 4
  br label %6, !llvm.loop !5

16:                                               ; preds = %6
  %17 = load i32, ptr %4, align 4
  ret i32 %17
}