; Function Attrs: mustprogress nofree nounwind uwtable
define noundef i32 @_Z9pr_indentP8_IO_FILEi(ptr nocapture noundef %0, i32 noundef returned %1) local_unnamed_addr #0 {
  %3 = icmp sgt i32 %1, 0
  br i1 %3, label %.lr.ph, label %._crit_edge

.lr.ph:                                           ; preds = %2, %.lr.ph
  %.05 = phi i32 [ %4, %.lr.ph ], [ 0, %2 ]
  %fputc = tail call i32 @fputc(i32 32, ptr %0)
  %4 = add nuw nsw i32 %.05, 1
  %exitcond.not = icmp eq i32 %4, %1
  br i1 %exitcond.not, label %._crit_edge, label %.lr.ph, !llvm.loop !5

._crit_edge:                                      ; preds = %.lr.ph, %2
  ret i32 %1
}